target datalayout = "e-m:e-p270:32:32-p271:32:32-p272:64:64-i64:64-i128:128-f80:128-n8:16:32:64-S128"
target triple = "x86_64-pc-linux-gnu"

@hf_edonkey_client_hash = internal global i32 0, align 4
@hf_edonkey_client_id = internal global i32 0, align 4
@hf_edonkey_port = internal global i32 0, align 4
@hf_edonkey_clientinfo = internal global i32 0, align 4
@ett_edonkey_clientinfo = internal global i32 0, align 4
@.str.417 = private unnamed_addr constant [9 x i8] c"Meta Tag\00", align 1
@.str.463 = private unnamed_addr constant [27 x i8] c" (myself, incomplete file)\00", align 1
@.str.464 = private unnamed_addr constant [25 x i8] c" (myself, complete file)\00", align 1

; Function Attrs: null_pointer_is_valid sspstrong uwtable
define internal i32 @dissect_edonkey_metatag_list(ptr noundef %0, ptr noundef %1, i32 noundef %2, ptr noundef %3) #0 {
  %5 = alloca ptr, align 8
  %6 = alloca ptr, align 8
  %7 = alloca i32, align 4
  %8 = alloca ptr, align 8
  store ptr %0, ptr %5, align 8
  store ptr %1, ptr %6, align 8
  store i32 %2, ptr %7, align 4
  store ptr %3, ptr %8, align 8
  %9 = load ptr, ptr %5, align 8
  %10 = load ptr, ptr %6, align 8
  %11 = load i32, ptr %7, align 4
  %12 = load ptr, ptr %8, align 8
  %13 = call i32 @dissect_edonkey_list(ptr noundef %9, ptr noundef %10, i32 noundef %11, ptr noundef %12, i32 noundef 4, ptr noundef @.str.417, ptr noundef @dissect_edonkey_metatag)
  ret i32 %13
}

; Function Attrs: null_pointer_is_valid sspstrong uwtable
define internal i32 @dissect_edonkey_port(ptr noundef %0, ptr noundef %1, i32 noundef %2, ptr noundef %3) #0 {
  %5 = alloca ptr, align 8
  %6 = alloca ptr, align 8
  %7 = alloca i32, align 4
  %8 = alloca ptr, align 8
  store ptr %0, ptr %5, align 8
  store ptr %1, ptr %6, align 8
  store i32 %2, ptr %7, align 4
  store ptr %3, ptr %8, align 8
  %9 = load ptr, ptr %8, align 8
  %10 = load i32, ptr @hf_edonkey_port, align 4
  %11 = load ptr, ptr %5, align 8
  %12 = load i32, ptr %7, align 4
  %13 = call ptr @proto_tree_add_item(ptr noundef %9, i32 noundef %10, ptr noundef %11, i32 noundef %12, i32 noundef 2, i32 noundef -2147483648)
  %14 = load i32, ptr %7, align 4
  %15 = add i32 %14, 2
  ret i32 %15
}

; Function Attrs: null_pointer_is_valid sspstrong uwtable
define internal i32 @dissect_edonkey_client_id(ptr noundef %0, ptr noundef %1, i32 noundef %2, ptr noundef %3, i1 noundef zeroext %4) #0 {
  %6 = alloca ptr, align 8
  %7 = alloca ptr, align 8
  %8 = alloca i32, align 4
  %9 = alloca ptr, align 8
  %10 = alloca i8, align 1
  %11 = alloca ptr, align 8
  %12 = alloca i32, align 4
  %13 = alloca i16, align 2
  store ptr %0, ptr %6, align 8
  store ptr %1, ptr %7, align 8
  store i32 %2, ptr %8, align 4
  store ptr %3, ptr %9, align 8
  %14 = zext i1 %4 to i8
  store i8 %14, ptr %10, align 1
  call void @llvm.lifetime.start.p0(i64 8, ptr %11) #6
  %15 = load ptr, ptr %9, align 8
  %16 = load i32, ptr @hf_edonkey_client_id, align 4
  %17 = load ptr, ptr %6, align 8
  %18 = load i32, ptr %8, align 4
  %19 = call ptr @proto_tree_add_item(ptr noundef %15, i32 noundef %16, ptr noundef %17, i32 noundef %18, i32 noundef 4, i32 noundef 0)
  store ptr %19, ptr %11, align 8
  %20 = load i8, ptr %10, align 1, !range !6, !noundef !7
  %21 = trunc i8 %20 to i1
  br i1 %21, label %22, label %49

22:                                               ; preds = %5
  call void @llvm.lifetime.start.p0(i64 4, ptr %12) #6
  %23 = load ptr, ptr %6, align 8
  %24 = load i32, ptr %8, align 4
  %25 = call i32 @tvb_get_letohl(ptr noundef %23, i32 noundef %24)
  store i32 %25, ptr %12, align 4
  call void @llvm.lifetime.start.p0(i64 2, ptr %13) #6
  %26 = load ptr, ptr %6, align 8
  %27 = load i32, ptr %8, align 4
  %28 = add i32 %27, 4
  %29 = call zeroext i16 @tvb_get_letohs(ptr noundef %26, i32 noundef %28)
  store i16 %29, ptr %13, align 2
  %30 = load i32, ptr %12, align 4
  %31 = icmp eq i32 %30, -50529028
  br i1 %31, label %32, label %38

32:                                               ; preds = %22
  %33 = load i16, ptr %13, align 2
  %34 = zext i16 %33 to i32
  %35 = icmp eq i32 %34, 64764
  br i1 %35, label %36, label %38

36:                                               ; preds = %32
  %37 = load ptr, ptr %11, align 8
  call void (ptr, ptr, ...) @proto_item_append_text(ptr noundef %37, ptr noundef @.str.463)
  br label %48

38:                                               ; preds = %32, %22
  %39 = load i32, ptr %12, align 4
  %40 = icmp eq i32 %39, -67372037
  br i1 %40, label %41, label %47

41:                                               ; preds = %38
  %42 = load i16, ptr %13, align 2
  %43 = zext i16 %42 to i32
  %44 = icmp eq i32 %43, 64507
  br i1 %44, label %45, label %47

45:                                               ; preds = %41
  %46 = load ptr, ptr %11, align 8
  call void (ptr, ptr, ...) @proto_item_append_text(ptr noundef %46, ptr noundef @.str.464)
  br label %47

47:                                               ; preds = %45, %41, %38
  br label %48

48:                                               ; preds = %47, %36
  call void @llvm.lifetime.end.p0(i64 2, ptr %13) #6
  call void @llvm.lifetime.end.p0(i64 4, ptr %12) #6
  br label %49

49:                                               ; preds = %48, %5
  %50 = load i32, ptr %8, align 4
  %51 = add i32 %50, 4
  call void @llvm.lifetime.end.p0(i64 8, ptr %11) #6
  ret i32 %51
}

; Function Attrs: null_pointer_is_valid sspstrong uwtable
define internal i32 @dissect_edonkey_client_hash(ptr noundef %0, ptr noundef %1, i32 noundef %2, ptr noundef %3) #0 {
  %5 = alloca ptr, align 8
  %6 = alloca ptr, align 8
  %7 = alloca i32, align 4
  %8 = alloca ptr, align 8
  store ptr %0, ptr %5, align 8
  store ptr %1, ptr %6, align 8
  store i32 %2, ptr %7, align 4
  store ptr %3, ptr %8, align 8
  %9 = load ptr, ptr %8, align 8
  %10 = load i32, ptr @hf_edonkey_client_hash, align 4
  %11 = load ptr, ptr %5, align 8
  %12 = load i32, ptr %7, align 4
  %13 = call ptr @proto_tree_add_item(ptr noundef %9, i32 noundef %10, ptr noundef %11, i32 noundef %12, i32 noundef 16, i32 noundef 0)
  %14 = load i32, ptr %7, align 4
  %15 = add i32 %14, 16
  ret i32 %15
}

; Function Attrs: null_pointer_is_valid sspstrong uwtable
define internal i32 @dissect_edonkey_client_info(ptr noundef %0, ptr noundef %1, i32 noundef %2, ptr noundef %3) #0 {
  %5 = alloca ptr, align 8
  %6 = alloca ptr, align 8
  %7 = alloca i32, align 4
  %8 = alloca ptr, align 8
  %9 = alloca ptr, align 8
  %10 = alloca ptr, align 8
  store ptr %0, ptr %5, align 8
  store ptr %1, ptr %6, align 8
  store i32 %2, ptr %7, align 4
  store ptr %3, ptr %8, align 8
  call void @llvm.lifetime.start.p0(i64 8, ptr %9) #6
  call void @llvm.lifetime.start.p0(i64 8, ptr %10) #6
  %11 = load ptr, ptr %8, align 8
  %12 = load i32, ptr @hf_edonkey_clientinfo, align 4
  %13 = load ptr, ptr %5, align 8
  %14 = load i32, ptr %7, align 4
  %15 = call ptr @proto_tree_add_item(ptr noundef %11, i32 noundef %12, ptr noundef %13, i32 noundef %14, i32 noundef 0, i32 noundef 0)
  store ptr %15, ptr %9, align 8
  %16 = load ptr, ptr %9, align 8
  %17 = load i32, ptr @ett_edonkey_clientinfo, align 4
  %18 = call ptr @proto_item_add_subtree(ptr noundef %16, i32 noundef %17)
  store ptr %18, ptr %10, align 8
  %19 = load ptr, ptr %5, align 8
  %20 = load ptr, ptr %6, align 8
  %21 = load i32, ptr %7, align 4
  %22 = load ptr, ptr %10, align 8
  %23 = call i32 @dissect_edonkey_client_hash(ptr noundef %19, ptr noundef %20, i32 noundef %21, ptr noundef %22)
  store i32 %23, ptr %7, align 4
  %24 = load ptr, ptr %5, align 8
  %25 = load ptr, ptr %6, align 8
  %26 = load i32, ptr %7, align 4
  %27 = load ptr, ptr %10, align 8
  %28 = call i32 @dissect_edonkey_client_id(ptr noundef %24, ptr noundef %25, i32 noundef %26, ptr noundef %27, i1 noundef zeroext false)
  store i32 %28, ptr %7, align 4
  %29 = load ptr, ptr %5, align 8
  %30 = load ptr, ptr %6, align 8
  %31 = load i32, ptr %7, align 4
  %32 = load ptr, ptr %10, align 8
  %33 = call i32 @dissect_edonkey_port(ptr noundef %29, ptr noundef %30, i32 noundef %31, ptr noundef %32)
  store i32 %33, ptr %7, align 4
  %34 = load ptr, ptr %5, align 8
  %35 = load ptr, ptr %6, align 8
  %36 = load i32, ptr %7, align 4
  %37 = load ptr, ptr %10, align 8
  %38 = call i32 @dissect_edonkey_metatag_list(ptr noundef %34, ptr noundef %35, i32 noundef %36, ptr noundef %37)
  store i32 %38, ptr %7, align 4
  %39 = load i32, ptr %7, align 4
  call void @llvm.lifetime.end.p0(i64 8, ptr %10) #6
  call void @llvm.lifetime.end.p0(i64 8, ptr %9) #6
  ret i32 %39
}