; Function Attrs: null_pointer_is_valid sspstrong uwtable
define internal i32 @dissect_edonkey_client_info(ptr noundef %0, ptr noundef %1, i32 noundef %2, ptr noundef %3) #0 {
  %5 = load i32, ptr @hf_edonkey_clientinfo, align 4
  %6 = tail call ptr @proto_tree_add_item(ptr noundef %3, i32 noundef %5, ptr noundef %0, i32 noundef %2, i32 noundef 0, i32 noundef 0)
  %7 = load i32, ptr @ett_edonkey_clientinfo, align 4
  %8 = tail call ptr @proto_item_add_subtree(ptr noundef %6, i32 noundef %7)
  %9 = load i32, ptr @hf_edonkey_client_hash, align 4
  %10 = tail call ptr @proto_tree_add_item(ptr noundef %8, i32 noundef %9, ptr noundef %0, i32 noundef %2, i32 noundef 16, i32 noundef 0)
  %11 = add i32 %2, 16
  %12 = load i32, ptr @hf_edonkey_client_id, align 4
  %13 = tail call ptr @proto_tree_add_item(ptr noundef %8, i32 noundef %12, ptr noundef %0, i32 noundef %11, i32 noundef 4, i32 noundef 0)
  %.pre.i = add i32 %2, 20
  %14 = load i32, ptr @hf_edonkey_port, align 4
  %15 = tail call ptr @proto_tree_add_item(ptr noundef %8, i32 noundef %14, ptr noundef %0, i32 noundef %.pre.i, i32 noundef 2, i32 noundef -2147483648)
  %16 = add i32 %2, 22
  %17 = tail call fastcc i32 @dissect_edonkey_list(ptr noundef %0, ptr noundef %1, i32 noundef %16, ptr noundef %8, i32 noundef 4, ptr noundef nonnull @.str.417, ptr noundef nonnull @dissect_edonkey_metatag)
  ret i32 %17
}